; Function Attrs: mustprogress nounwind uwtable
define hidden void @_ZN25InterpreterMacroAssembler22get_cache_index_at_bcpE8Registerim(ptr noundef nonnull align 8 dereferenceable(48) %0, i32 %1, i32 noundef %2, i64 noundef %3) local_unnamed_addr #0 align 2 {
  %5 = alloca %class.Address, align 8
  %6 = alloca %class.Address, align 8
  %7 = alloca %class.Address, align 8
  switch i64 %3, label %40 [
    i64 2, label %8
    i64 4, label %19
    i64 1, label %29
  ]

8:                                                ; preds = %4
  %9 = getelementptr inbounds i8, ptr %0, i64 44
  %.sroa.04.0.copyload = load i32, ptr %9, align 4
  store i32 %.sroa.04.0.copyload, ptr %5, align 8
  %10 = getelementptr inbounds i8, ptr %5, i64 4
  store i32 -1, ptr %10, align 4
  %11 = getelementptr inbounds i8, ptr %5, i64 8
  store i32 -1, ptr %11, align 8
  %12 = getelementptr inbounds i8, ptr %5, i64 12
  store i32 -1, ptr %12, align 4
  %13 = getelementptr inbounds i8, ptr %5, i64 16
  store i32 %2, ptr %13, align 8
  %14 = getelementptr inbounds i8, ptr %5, i64 20
  store i8 0, ptr %14, align 4
  %15 = getelementptr inbounds i8, ptr %5, i64 24
  store ptr getelementptr inbounds inrange(-16, 72) (i8, ptr @_ZTV10Relocation, i64 16), ptr %15, align 8
  %16 = getelementptr inbounds i8, ptr %5, i64 32
  store ptr null, ptr %16, align 8
  %17 = getelementptr inbounds i8, ptr %5, i64 40
  store i32 0, ptr %17, align 8
  %18 = call noundef i32 @_ZN14MacroAssembler19load_unsigned_shortE8Register7Address(ptr noundef nonnull align 8 dereferenceable(40) %0, i32 %1, ptr noundef nonnull %5) #8
  br label %42

19:                                               ; preds = %4
  %20 = getelementptr inbounds i8, ptr %0, i64 44
  %.sroa.02.0.copyload = load i32, ptr %20, align 4
  store i32 %.sroa.02.0.copyload, ptr %6, align 8
  %21 = getelementptr inbounds i8, ptr %6, i64 4
  store i32 -1, ptr %21, align 4
  %22 = getelementptr inbounds i8, ptr %6, i64 8
  store i32 -1, ptr %22, align 8
  %23 = getelementptr inbounds i8, ptr %6, i64 12
  store i32 -1, ptr %23, align 4
  %24 = getelementptr inbounds i8, ptr %6, i64 16
  store i32 %2, ptr %24, align 8
  %25 = getelementptr inbounds i8, ptr %6, i64 20
  store i8 0, ptr %25, align 4
  %26 = getelementptr inbounds i8, ptr %6, i64 24
  store ptr getelementptr inbounds inrange(-16, 72) (i8, ptr @_ZTV10Relocation, i64 16), ptr %26, align 8
  %27 = getelementptr inbounds i8, ptr %6, i64 32
  store ptr null, ptr %27, align 8
  %28 = getelementptr inbounds i8, ptr %6, i64 40
  store i32 0, ptr %28, align 8
  call void @_ZN9Assembler4movlE8Register7Address(ptr noundef nonnull align 8 dereferenceable(40) %0, i32 %1, ptr noundef nonnull %6) #8
  br label %42

29:                                               ; preds = %4
  %30 = getelementptr inbounds i8, ptr %0, i64 44
  %.sroa.0.0.copyload = load i32, ptr %30, align 4
  store i32 %.sroa.0.0.copyload, ptr %7, align 8
  %31 = getelementptr inbounds i8, ptr %7, i64 4
  store i32 -1, ptr %31, align 4
  %32 = getelementptr inbounds i8, ptr %7, i64 8
  store i32 -1, ptr %32, align 8
  %33 = getelementptr inbounds i8, ptr %7, i64 12
  store i32 -1, ptr %33, align 4
  %34 = getelementptr inbounds i8, ptr %7, i64 16
  store i32 %2, ptr %34, align 8
  %35 = getelementptr inbounds i8, ptr %7, i64 20
  store i8 0, ptr %35, align 4
  %36 = getelementptr inbounds i8, ptr %7, i64 24
  store ptr getelementptr inbounds inrange(-16, 72) (i8, ptr @_ZTV10Relocation, i64 16), ptr %36, align 8
  %37 = getelementptr inbounds i8, ptr %7, i64 32
  store ptr null, ptr %37, align 8
  %38 = getelementptr inbounds i8, ptr %7, i64 40
  store i32 0, ptr %38, align 8
  %39 = call noundef i32 @_ZN14MacroAssembler18load_unsigned_byteE8Register7Address(ptr noundef nonnull align 8 dereferenceable(40) %0, i32 %1, ptr noundef nonnull %7) #8
  br label %42

40:                                               ; preds = %4
  %41 = load ptr, ptr @g_assert_poison, align 8
  store i8 88, ptr %41, align 1
  tail call void @_Z28report_should_not_reach_herePKci(ptr noundef nonnull @.str, i32 noundef 469) #9
  unreachable

42:                                               ; preds = %19, %29, %8
  ret void
}